; Function Attrs: mustprogress nofree norecurse nosync nounwind willreturn memory(read, inaccessiblemem: none) uwtable
define float @Abc_NodeReadOutputLoadWorst(ptr noundef readonly captures(none) %0, i32 noundef %1) local_unnamed_addr #1 {
  %3 = getelementptr inbounds nuw i8, ptr %0, i64 264
  %4 = load ptr, ptr %3, align 8
  %5 = getelementptr inbounds nuw i8, ptr %4, i64 56
  %6 = load ptr, ptr %5, align 8
  %.not.i = icmp eq ptr %6, null
  %7 = sext i32 %1 to i64
  %8 = getelementptr inbounds %struct.Abc_Time_t_, ptr %6, i64 %7
  %9 = select i1 %.not.i, ptr null, ptr %8
  %10 = load float, ptr %9, align 4
  %11 = getelementptr inbounds nuw i8, ptr %9, i64 4
  %12 = load float, ptr %11, align 4
  %13 = fcmp ogt float %10, %12
  %14 = select i1 %13, float %10, float %12
  ret float %14
}